; Function Attrs: mustprogress uwtable
define internal fastcc void @_ZN18OpenImageIO_v2_6_0L8sub_implI4halfttEEbRNS_8ImageBufERKS2_S5_NS_3ROIEi(ptr noundef nonnull align 8 dereferenceable(16) %R, ptr noundef nonnull align 8 dereferenceable(16) %A, ptr noundef nonnull align 8 dereferenceable(16) %B, ptr nocapture noundef readonly byval(%"struct.OpenImageIO_v2_6_0::ROI") align 8 %roi, i32 noundef %nthreads) unnamed_addr #5 personality ptr @__gxx_personality_v0 {
entry:
  %agg.tmp1 = alloca %"class.OpenImageIO_v2_6_0::paropt", align 8
  %agg.tmp2 = alloca %"class.std::function", align 8
  store i32 %nthreads, ptr %agg.tmp1, align 8
  %m_strategy.i = getelementptr inbounds i8, ptr %agg.tmp1, i64 4
  store i16 0, ptr %m_strategy.i, align 4
  %m_splitdir.i = getelementptr inbounds i8, ptr %agg.tmp1, i64 6
  store i16 1, ptr %m_splitdir.i, align 2
  %m_minitems.i = getelementptr inbounds i8, ptr %agg.tmp1, i64 8
  store i64 1024, ptr %m_minitems.i, align 8
  %m_pool.i = getelementptr inbounds i8, ptr %agg.tmp1, i64 16
  store ptr null, ptr %m_pool.i, align 8
  %m_recursive.i = getelementptr inbounds i8, ptr %agg.tmp1, i64 24
  store i8 0, ptr %m_recursive.i, align 8
  %_M_manager.i.i = getelementptr inbounds i8, ptr %agg.tmp2, i64 16
  %_M_invoker.i = getelementptr inbounds i8, ptr %agg.tmp2, i64 24
  %0 = getelementptr inbounds i8, ptr %agg.tmp2, i64 8
  store i64 0, ptr %0, align 8
  %call.i.i2.i = tail call noalias noundef nonnull dereferenceable(24) ptr @_Znwm(i64 noundef 24) #24
  store ptr %R, ptr %call.i.i2.i, align 16
  %ref.tmp.sroa.2.0.call.i.i2.i.sroa_idx = getelementptr inbounds i8, ptr %call.i.i2.i, i64 8
  store ptr %A, ptr %ref.tmp.sroa.2.0.call.i.i2.i.sroa_idx, align 8
  %ref.tmp.sroa.3.0.call.i.i2.i.sroa_idx = getelementptr inbounds i8, ptr %call.i.i2.i, i64 16
  store ptr %B, ptr %ref.tmp.sroa.3.0.call.i.i2.i.sroa_idx, align 16
  store ptr %call.i.i2.i, ptr %agg.tmp2, align 8
  store ptr @_ZNSt17_Function_handlerIFvN18OpenImageIO_v2_6_03ROIEEZNS0_L8sub_implI4halfttEEbRNS0_8ImageBufERKS5_S8_S1_iEUlS1_E_E9_M_invokeERKSt9_Any_dataOS1_, ptr %_M_invoker.i, align 8
  store ptr @_ZNSt17_Function_handlerIFvN18OpenImageIO_v2_6_03ROIEEZNS0_L8sub_implI4halfttEEbRNS0_8ImageBufERKS5_S8_S1_iEUlS1_E_E10_M_managerERSt9_Any_dataRKSB_St18_Manager_operation, ptr %_M_manager.i.i, align 8
  invoke void @_ZN18OpenImageIO_v2_6_012ImageBufAlgo14parallel_imageENS_3ROIENS_6paroptESt8functionIFvS1_EE(ptr noundef nonnull byval(%"struct.OpenImageIO_v2_6_0::ROI") align 8 %roi, ptr noundef nonnull byval(%"class.OpenImageIO_v2_6_0::paropt") align 8 %agg.tmp1, ptr noundef nonnull %agg.tmp2)
          to label %invoke.cont unwind label %lpad

invoke.cont:                                      ; preds = %entry
  %1 = load ptr, ptr %_M_manager.i.i, align 8
  %tobool.not.i.i = icmp eq ptr %1, null
  br i1 %tobool.not.i.i, label %_ZNSt8functionIFvN18OpenImageIO_v2_6_03ROIEEED2Ev.exit, label %if.then.i.i

if.then.i.i:                                      ; preds = %invoke.cont
  %call.i.i = invoke noundef zeroext i1 %1(ptr noundef nonnull align 8 dereferenceable(16) %agg.tmp2, ptr noundef nonnull align 8 dereferenceable(16) %agg.tmp2, i32 noundef 3)
          to label %_ZNSt8functionIFvN18OpenImageIO_v2_6_03ROIEEED2Ev.exit unwind label %terminate.lpad.i.i

terminate.lpad.i.i:                               ; preds = %if.then.i.i
  %2 = landingpad { ptr, i32 }
          catch ptr null
  %3 = extractvalue { ptr, i32 } %2, 0
  call void @__clang_call_terminate(ptr %3) #25
  unreachable

_ZNSt8functionIFvN18OpenImageIO_v2_6_03ROIEEED2Ev.exit: ; preds = %invoke.cont, %if.then.i.i
  ret void

lpad:                                             ; preds = %entry
  %4 = landingpad { ptr, i32 }
          cleanup
  %5 = load ptr, ptr %_M_manager.i.i, align 8
  %tobool.not.i.i3 = icmp eq ptr %5, null
  br i1 %tobool.not.i.i3, label %_ZNSt8functionIFvN18OpenImageIO_v2_6_03ROIEEED2Ev.exit7, label %if.then.i.i4

if.then.i.i4:                                     ; preds = %lpad
  %call.i.i5 = invoke noundef zeroext i1 %5(ptr noundef nonnull align 8 dereferenceable(16) %agg.tmp2, ptr noundef nonnull align 8 dereferenceable(16) %agg.tmp2, i32 noundef 3)
          to label %_ZNSt8functionIFvN18OpenImageIO_v2_6_03ROIEEED2Ev.exit7 unwind label %terminate.lpad.i.i6

terminate.lpad.i.i6:                              ; preds = %if.then.i.i4
  %6 = landingpad { ptr, i32 }
          catch ptr null
  %7 = extractvalue { ptr, i32 } %6, 0
  call void @__clang_call_terminate(ptr %7) #25
  unreachable

_ZNSt8functionIFvN18OpenImageIO_v2_6_03ROIEEED2Ev.exit7: ; preds = %lpad, %if.then.i.i4
  resume { ptr, i32 } %4
}